; ModuleID = 'source-C-CXX/27/38.c'
source_filename = "source-C-CXX/27/38.c"
target datalayout = "e-m:e-p270:32:32-p271:32:32-p272:64:64-i64:64-f80:128-n8:16:32:64-S128"
target triple = "x86_64-pc-linux-gnu"

@.str = private unnamed_addr constant [3 x i8] c"%d\00", align 1
@.str.1 = private unnamed_addr constant [4 x i8] c"%d,\00", align 1

; Function Attrs: nounwind sspstrong uwtable
define dso_local void @main() local_unnamed_addr #0 {
  %1 = alloca [30000 x i8], align 16
  %2 = alloca [300 x i32], align 16
  %3 = getelementptr inbounds [30000 x i8], [30000 x i8]* %1, i64 0, i64 0
  call void @llvm.lifetime.start.p0i8(i64 30000, i8* nonnull %3) #6
  %4 = bitcast [300 x i32]* %2 to i8*
  call void @llvm.lifetime.start.p0i8(i64 1200, i8* nonnull %4) #6
  call void @llvm.memset.p0i8.i64(i8* noundef nonnull align 16 dereferenceable(1200) %4, i8 0, i64 1200, i1 false)
  %5 = call i32 (i8*, ...) bitcast (i32 (...)* @gets to i32 (i8*, ...)*)(i8* nonnull %3) #6
  %6 = call i64 @strlen(i8* noundef nonnull %3) #7
  %7 = icmp eq i64 %6, 0
  br i1 %7, label %49, label %16

8:                                                ; preds = %34
  %9 = getelementptr inbounds [300 x i32], [300 x i32]* %2, i64 0, i64 0
  %10 = load i32, i32* %9, align 16, !tbaa !5
  %11 = icmp eq i32 %10, 0
  br i1 %11, label %49, label %12

12:                                               ; preds = %8
  %13 = getelementptr inbounds [300 x i32], [300 x i32]* %2, i64 0, i64 1
  %14 = load i32, i32* %13, align 4, !tbaa !5
  %15 = icmp eq i32 %14, 0
  br i1 %15, label %46, label %37

16:                                               ; preds = %0, %34
  %17 = phi i64 [ %35, %34 ], [ 0, %0 ]
  %18 = phi i32 [ %27, %34 ], [ 0, %0 ]
  %19 = phi i32 [ %25, %34 ], [ 0, %0 ]
  %20 = getelementptr inbounds [30000 x i8], [30000 x i8]* %1, i64 0, i64 %17
  %21 = load i8, i8* %20, align 1, !tbaa !9
  %22 = icmp eq i8 %21, 32
  %23 = xor i32 %18, 1
  %24 = select i1 %22, i32 0, i32 %23
  %25 = add nuw nsw i32 %24, %19
  %26 = xor i1 %22, true
  %27 = zext i1 %26 to i32
  br i1 %22, label %34, label %28

28:                                               ; preds = %16
  %29 = add nsw i32 %25, -1
  %30 = sext i32 %29 to i64
  %31 = getelementptr inbounds [300 x i32], [300 x i32]* %2, i64 0, i64 %30
  %32 = load i32, i32* %31, align 4, !tbaa !5
  %33 = add nsw i32 %32, 1
  store i32 %33, i32* %31, align 4, !tbaa !5
  br label %34

34:                                               ; preds = %16, %28
  %35 = add nuw nsw i64 %17, 1
  %36 = icmp eq i64 %35, %6
  br i1 %36, label %8, label %16, !llvm.loop !10

37:                                               ; preds = %12, %37
  %38 = phi i32 [ %44, %37 ], [ %14, %12 ]
  %39 = phi i64 [ %42, %37 ], [ 1, %12 ]
  %40 = phi i32 [ %38, %37 ], [ %10, %12 ]
  %41 = call i32 (i8*, ...) @printf(i8* nonnull dereferenceable(1) getelementptr inbounds ([4 x i8], [4 x i8]* @.str.1, i64 0, i64 0), i32 %40)
  %42 = add nuw nsw i64 %39, 1
  %43 = getelementptr inbounds [300 x i32], [300 x i32]* %2, i64 0, i64 %42
  %44 = load i32, i32* %43, align 4, !tbaa !5
  %45 = icmp eq i32 %44, 0
  br i1 %45, label %46, label %37

46:                                               ; preds = %37, %12
  %47 = phi i32 [ %10, %12 ], [ %38, %37 ]
  %48 = call i32 (i8*, ...) @printf(i8* nonnull dereferenceable(1) getelementptr inbounds ([3 x i8], [3 x i8]* @.str, i64 0, i64 0), i32 %47)
  br label %49

49:                                               ; preds = %0, %46, %8
  call void @llvm.lifetime.end.p0i8(i64 1200, i8* nonnull %4) #6
  call void @llvm.lifetime.end.p0i8(i64 30000, i8* nonnull %3) #6
  ret void
}

; Function Attrs: argmemonly mustprogress nofree nosync nounwind willreturn
declare void @llvm.lifetime.start.p0i8(i64 immarg, i8* nocapture) #1

; Function Attrs: argmemonly mustprogress nofree nounwind willreturn writeonly
declare void @llvm.memset.p0i8.i64(i8* nocapture writeonly, i8, i64, i1 immarg) #2

declare i32 @gets(...) local_unnamed_addr #3

; Function Attrs: argmemonly mustprogress nofree nounwind readonly willreturn
declare i64 @strlen(i8* nocapture) local_unnamed_addr #4

; Function Attrs: nofree nounwind
declare noundef i32 @printf(i8* nocapture noundef readonly, ...) local_unnamed_addr #5

; Function Attrs: argmemonly mustprogress nofree nosync nounwind willreturn
declare void @llvm.lifetime.end.p0i8(i64 immarg, i8* nocapture) #1


!llvm.module.flags = !{!0, !1, !2, !3}
!llvm.ident = !{!4}

!0 = !{i32 1, !"wchar_size", i32 4}
!1 = !{i32 7, !"PIC Level", i32 2}
!2 = !{i32 7, !"PIE Level", i32 2}
!3 = !{i32 7, !"uwtable", i32 1}
!4 = !{!"clang version 13.0.0"}
!5 = !{!6, !6, i64 0}
!6 = !{!"int", !7, i64 0}
!7 = !{!"omnipotent char", !8, i64 0}
!8 = !{!"Simple C/C++ TBAA"}
!9 = !{!7, !7, i64 0}
!10 = distinct !{!10, !11}
!11 = !{!"llvm.loop.mustprogress"}
